; Function Attrs: mustprogress nofree norecurse nosync nounwind memory(readwrite, inaccessiblemem: none) uwtable
define internal void @_ZL17evaluate_molindexRKN3gmx20SelMethodEvalContextEP15gmx_ana_index_tP18gmx_ana_selvalue_tPv(ptr noundef nonnull readonly align 8 captures(none) dereferenceable(24) %0, ptr noundef readonly captures(none) %1, ptr noundef captures(none) initializes((4, 8)) %2, ptr readnone captures(none) %3) #3 {
  %5 = load i32, ptr %1, align 8, !tbaa !7
  %6 = getelementptr inbounds nuw i8, ptr %2, i64 4
  store i32 %5, ptr %6, align 4, !tbaa !12
  %7 = icmp sgt i32 %5, 0
  br i1 %7, label %.lr.ph, label %._crit_edge

.lr.ph:                                           ; preds = %4
  %8 = load ptr, ptr %0, align 8, !tbaa !19
  %9 = getelementptr inbounds nuw i8, ptr %1, i64 8
  %10 = load ptr, ptr %9, align 8, !tbaa !15
  %11 = getelementptr inbounds nuw i8, ptr %8, i64 136
  %12 = getelementptr inbounds nuw i8, ptr %8, i64 144
  %13 = load ptr, ptr %12, align 8, !tbaa !24
  %14 = load ptr, ptr %11, align 8, !tbaa !27
  %15 = ptrtoint ptr %13 to i64
  %16 = ptrtoint ptr %14 to i64
  %17 = sub i64 %15, %16
  %18 = sdiv exact i64 %17, 56
  %19 = trunc i64 %18 to i32
  %20 = getelementptr inbounds nuw i8, ptr %8, i64 736
  %21 = load ptr, ptr %20, align 8, !tbaa !28
  %22 = getelementptr inbounds nuw i8, ptr %2, i64 8
  br label %23

._crit_edge:                                      ; preds = %_ZL20mtopGetMoleculeIndexRK10gmx_mtop_tiPi.exit, %4
  ret void

23:                                               ; preds = %.lr.ph, %_ZL20mtopGetMoleculeIndexRK10gmx_mtop_tiPi.exit
  %indvars.iv = phi i64 [ 0, %.lr.ph ], [ %indvars.iv.next, %_ZL20mtopGetMoleculeIndexRK10gmx_mtop_tiPi.exit ]
  %.0912 = phi i32 [ 0, %.lr.ph ], [ %.1, %_ZL20mtopGetMoleculeIndexRK10gmx_mtop_tiPi.exit ]
  %24 = getelementptr inbounds nuw i32, ptr %10, i64 %indvars.iv
  %25 = load i32, ptr %24, align 4, !tbaa !16
  br label %26

26:                                               ; preds = %35, %23
  %.1 = phi i32 [ %.0912, %23 ], [ %38, %35 ]
  %.026.i.i = phi i32 [ %19, %23 ], [ %.127.i.i, %35 ]
  %.0.i.i = phi i32 [ -1, %23 ], [ %.1.i.i, %35 ]
  %27 = sext i32 %.1 to i64
  %28 = getelementptr inbounds nuw %struct.MoleculeBlockIndices, ptr %21, i64 %27
  %29 = getelementptr inbounds nuw i8, ptr %28, i64 4
  %30 = load i32, ptr %29, align 4, !tbaa !34
  %31 = icmp slt i32 %25, %30
  br i1 %31, label %35, label %32

32:                                               ; preds = %26
  %33 = getelementptr inbounds nuw i8, ptr %28, i64 8
  %34 = load i32, ptr %33, align 4, !tbaa !36
  %.not.i.i = icmp slt i32 %25, %34
  br i1 %.not.i.i, label %_ZL20mtopGetMoleculeIndexRK10gmx_mtop_tiPi.exit, label %35

35:                                               ; preds = %32, %26
  %.127.i.i = phi i32 [ %.1, %26 ], [ %.026.i.i, %32 ]
  %.1.i.i = phi i32 [ %.0.i.i, %26 ], [ %.1, %32 ]
  %36 = add i32 %.127.i.i, 1
  %37 = add i32 %36, %.1.i.i
  %38 = ashr i32 %37, 1
  br label %26, !llvm.loop !37

_ZL20mtopGetMoleculeIndexRK10gmx_mtop_tiPi.exit:  ; preds = %32
  %39 = sub nsw i32 %25, %30
  %40 = load i32, ptr %28, align 4, !tbaa !38
  %41 = sdiv i32 %39, %40
  %42 = getelementptr inbounds nuw %struct.MoleculeBlockIndices, ptr %21, i64 %27, i32 5
  %43 = load i32, ptr %42, align 4, !tbaa !120
  %44 = add i32 %41, 1
  %45 = add i32 %44, %43
  %46 = load ptr, ptr %22, align 8, !tbaa !4
  %47 = getelementptr inbounds nuw i32, ptr %46, i64 %indvars.iv
  store i32 %45, ptr %47, align 4, !tbaa !16
  %indvars.iv.next = add nuw nsw i64 %indvars.iv, 1
  %48 = load i32, ptr %1, align 8, !tbaa !7
  %49 = sext i32 %48 to i64
  %50 = icmp slt i64 %indvars.iv.next, %49
  br i1 %50, label %23, label %._crit_edge, !llvm.loop !121
}